; Function Attrs: mustprogress nofree nounwind willreturn uwtable
define internal fastcc noalias noundef ptr @Vec_FltDup(ptr noundef readonly captures(none) %0) unnamed_addr #19 {
  %2 = tail call noalias dereferenceable_or_null(16) ptr @malloc(i64 noundef 16) #28
  %3 = getelementptr inbounds nuw i8, ptr %0, i64 4
  %4 = load i32, ptr %3, align 4
  %5 = getelementptr inbounds nuw i8, ptr %2, i64 4
  store i32 %4, ptr %5, align 4
  %6 = load i32, ptr %0, align 8
  store i32 %6, ptr %2, align 8
  %.not = icmp eq i32 %6, 0
  br i1 %.not, label %11, label %7

7:                                                ; preds = %1
  %8 = sext i32 %6 to i64
  %9 = shl nsw i64 %8, 2
  %10 = tail call noalias ptr @malloc(i64 noundef %9) #28
  br label %11

11:                                               ; preds = %1, %7
  %12 = phi ptr [ %10, %7 ], [ null, %1 ]
  %13 = getelementptr inbounds nuw i8, ptr %2, i64 8
  store ptr %12, ptr %13, align 8
  %14 = getelementptr inbounds nuw i8, ptr %0, i64 8
  %15 = load ptr, ptr %14, align 8
  %16 = sext i32 %4 to i64
  %17 = shl nsw i64 %16, 2
  tail call void @llvm.memcpy.p0.p0.i64(ptr align 4 %12, ptr align 4 %15, i64 %17, i1 false)
  ret ptr %2
}